target datalayout = "e-m:e-p270:32:32-p271:32:32-p272:64:64-i64:64-i128:128-f80:128-n8:16:32:64-S128"
target triple = "x86_64-unknown-linux-gnu"

%union.anon.0 = type { %struct.QTailQLink }
%struct.QTailQLink = type { ptr, ptr }
%struct.NotifierList = type { %struct.anon }
%struct.anon = type { ptr }
%struct.QemuInputHandlerState = type { ptr, ptr, i32, i32, ptr, %union.anon }
%union.anon = type { %struct.QTailQLink }

@handlers = internal global %union.anon.0 { %struct.QTailQLink { ptr null, ptr @handlers } }, align 8
@mouse_mode_notifiers = internal global %struct.NotifierList zeroinitializer, align 8

; Function Attrs: nounwind sspstrong uwtable
define dso_local void @qemu_input_handler_deactivate(ptr noundef %s) #0 {
entry:
  %s.addr = alloca ptr, align 8
  store ptr %s, ptr %s.addr, align 8
  br label %do.body

do.body:                                          ; preds = %entry
  %0 = load ptr, ptr %s.addr, align 8
  %node = getelementptr inbounds %struct.QemuInputHandlerState, ptr %0, i32 0, i32 5
  %1 = load ptr, ptr %node, align 8
  %cmp = icmp ne ptr %1, null
  br i1 %cmp, label %if.then, label %if.else

if.then:                                          ; preds = %do.body
  %2 = load ptr, ptr %s.addr, align 8
  %node1 = getelementptr inbounds %struct.QemuInputHandlerState, ptr %2, i32 0, i32 5
  %tql_prev = getelementptr inbounds %struct.QTailQLink, ptr %node1, i32 0, i32 1
  %3 = load ptr, ptr %tql_prev, align 8
  %4 = load ptr, ptr %s.addr, align 8
  %node2 = getelementptr inbounds %struct.QemuInputHandlerState, ptr %4, i32 0, i32 5
  %5 = load ptr, ptr %node2, align 8
  %node3 = getelementptr inbounds %struct.QemuInputHandlerState, ptr %5, i32 0, i32 5
  %tql_prev4 = getelementptr inbounds %struct.QTailQLink, ptr %node3, i32 0, i32 1
  store ptr %3, ptr %tql_prev4, align 8
  br label %if.end

if.else:                                          ; preds = %do.body
  %6 = load ptr, ptr %s.addr, align 8
  %node5 = getelementptr inbounds %struct.QemuInputHandlerState, ptr %6, i32 0, i32 5
  %tql_prev6 = getelementptr inbounds %struct.QTailQLink, ptr %node5, i32 0, i32 1
  %7 = load ptr, ptr %tql_prev6, align 8
  %8 = getelementptr inbounds %struct.QTailQLink, ptr @handlers, i32 0, i32 1
  store ptr %7, ptr %8, align 8
  br label %if.end

if.end:                                           ; preds = %if.else, %if.then
  %9 = load ptr, ptr %s.addr, align 8
  %node7 = getelementptr inbounds %struct.QemuInputHandlerState, ptr %9, i32 0, i32 5
  %10 = load ptr, ptr %node7, align 8
  %11 = load ptr, ptr %s.addr, align 8
  %node8 = getelementptr inbounds %struct.QemuInputHandlerState, ptr %11, i32 0, i32 5
  %tql_prev9 = getelementptr inbounds %struct.QTailQLink, ptr %node8, i32 0, i32 1
  %12 = load ptr, ptr %tql_prev9, align 8
  %tql_next = getelementptr inbounds %struct.QTailQLink, ptr %12, i32 0, i32 0
  store ptr %10, ptr %tql_next, align 8
  %13 = load ptr, ptr %s.addr, align 8
  %node10 = getelementptr inbounds %struct.QemuInputHandlerState, ptr %13, i32 0, i32 5
  %tql_prev11 = getelementptr inbounds %struct.QTailQLink, ptr %node10, i32 0, i32 1
  store ptr null, ptr %tql_prev11, align 8
  %14 = load ptr, ptr %s.addr, align 8
  %node12 = getelementptr inbounds %struct.QemuInputHandlerState, ptr %14, i32 0, i32 5
  %tql_next13 = getelementptr inbounds %struct.QTailQLink, ptr %node12, i32 0, i32 0
  store ptr null, ptr %tql_next13, align 8
  %15 = load ptr, ptr %s.addr, align 8
  %node14 = getelementptr inbounds %struct.QemuInputHandlerState, ptr %15, i32 0, i32 5
  store ptr null, ptr %node14, align 8
  br label %do.end

do.end:                                           ; preds = %if.end
  br label %do.body15

do.body15:                                        ; preds = %do.end
  %16 = load ptr, ptr %s.addr, align 8
  %node16 = getelementptr inbounds %struct.QemuInputHandlerState, ptr %16, i32 0, i32 5
  store ptr null, ptr %node16, align 8
  %17 = getelementptr inbounds %struct.QTailQLink, ptr @handlers, i32 0, i32 1
  %18 = load ptr, ptr %17, align 8
  %19 = load ptr, ptr %s.addr, align 8
  %node17 = getelementptr inbounds %struct.QemuInputHandlerState, ptr %19, i32 0, i32 5
  %tql_prev18 = getelementptr inbounds %struct.QTailQLink, ptr %node17, i32 0, i32 1
  store ptr %18, ptr %tql_prev18, align 8
  %20 = load ptr, ptr %s.addr, align 8
  %21 = getelementptr inbounds %struct.QTailQLink, ptr @handlers, i32 0, i32 1
  %22 = load ptr, ptr %21, align 8
  %tql_next19 = getelementptr inbounds %struct.QTailQLink, ptr %22, i32 0, i32 0
  store ptr %20, ptr %tql_next19, align 8
  %23 = load ptr, ptr %s.addr, align 8
  %node20 = getelementptr inbounds %struct.QemuInputHandlerState, ptr %23, i32 0, i32 5
  %24 = getelementptr inbounds %struct.QTailQLink, ptr @handlers, i32 0, i32 1
  store ptr %node20, ptr %24, align 8
  br label %do.end21

do.end21:                                         ; preds = %do.body15
  call void @notifier_list_notify(ptr noundef @mouse_mode_notifiers, ptr noundef null)
  ret void
}